target datalayout = "e-m:e-p270:32:32-p271:32:32-p272:64:64-i64:64-i128:128-f80:128-n8:16:32:64-S128"
target triple = "x86_64-pc-linux-gnu"

%union.anon = type { ptr }
%struct.FFCodec = type { %struct.AVCodec, i32, i32, ptr, ptr, ptr, ptr, %union.anon, ptr, ptr, ptr, ptr, ptr, ptr }
%struct.AVCodec = type { ptr, ptr, i32, i32, i32, i8, ptr, ptr, ptr, ptr, ptr, ptr, ptr, ptr }
%struct.AVCodecContext = type { ptr, i32, i32, ptr, i32, i32, ptr, ptr, ptr, i64, i32, i32, ptr, i32, %struct.AVRational, %struct.AVRational, %struct.AVRational, i32, i32, i32, i32, i32, %struct.AVRational, i32, i32, i32, i32, i32, i32, i32, i32, i32, i32, i32, ptr, ptr, i32, float, float, float, float, float, float, float, float, float, i32, i32, i32, i32, i32, i32, i32, i32, i32, i32, i32, i32, ptr, ptr, ptr, i32, i32, i32, i32, i32, i32, i32, i32, i32, i32, %struct.AVChannelLayout, i32, i32, i32, i32, i32, i32, i32, i32, ptr, i32, i32, i32, float, float, i32, i32, i32, i32, i32, ptr, i64, i64, float, float, i32, i32, ptr, ptr, i32, i32, i32, i32, i32, ptr, ptr, ptr, ptr, i32, i32, [8 x i64], i32, i32, i32, i32, i32, i32, i32, ptr, ptr, i32, i32, i32, i32, i32, i32, i32, i32, i32, i32, ptr, ptr, i32, i32, ptr, ptr, ptr, ptr, i32, i32, i64, i32, i32, i64, ptr, i64, ptr, i32, ptr, i32 }
%struct.AVRational = type { i32, i32 }
%struct.AVChannelLayout = type { i32, i32, %union.anon.1, ptr }
%union.anon.1 = type { i64 }
%struct.TiffContext = type { ptr, ptr, %struct.GetByteContext, ptr, ptr, ptr, i32, i16, i32, i32, i32, i32, i32, i32, [256 x i32], i32, i32, i32, i32, i32, [2 x i32], i32, i32, i32, [4 x i32], i32, i32, i32, i32, [4 x i8], [4 x float], [4 x float], [4 x float], [3 x [4 x float]], [4 x [4 x float]], [4 x float], [4 x float], i32, [65536 x i16], i32, i16, i32, i32, i32, i32, i32, i32, i32, i32, ptr, i32, i32, i32, i32, i32, i32, ptr, i32, ptr, i32, i32, ptr }
%struct.GetByteContext = type { ptr, ptr, ptr }

@ff_mjpeg_decoder = external hidden constant %struct.FFCodec, align 8

; Function Attrs: cold nounwind optsize uwtable
define internal i32 @tiff_init(ptr noundef %0) #0 {
  %2 = alloca i32, align 4
  %3 = alloca ptr, align 8
  %4 = alloca ptr, align 8
  %5 = alloca i32, align 4
  %6 = alloca i32, align 4
  store ptr %0, ptr %3, align 8, !tbaa !4
  call void @llvm.lifetime.start.p0(i64 8, ptr %4) #13
  %7 = load ptr, ptr %3, align 8, !tbaa !4
  %8 = getelementptr inbounds nuw %struct.AVCodecContext, ptr %7, i32 0, i32 6
  %9 = load ptr, ptr %8, align 8, !tbaa !9
  store ptr %9, ptr %4, align 8, !tbaa !29
  call void @llvm.lifetime.start.p0(i64 4, ptr %5) #13
  %10 = load ptr, ptr %4, align 8, !tbaa !29
  %11 = getelementptr inbounds nuw %struct.TiffContext, ptr %10, i32 0, i32 10
  store i32 0, ptr %11, align 8, !tbaa !31
  %12 = load ptr, ptr %4, align 8, !tbaa !29
  %13 = getelementptr inbounds nuw %struct.TiffContext, ptr %12, i32 0, i32 11
  store i32 0, ptr %13, align 4, !tbaa !38
  %14 = load ptr, ptr %4, align 8, !tbaa !29
  %15 = getelementptr inbounds nuw %struct.TiffContext, ptr %14, i32 0, i32 20
  %16 = getelementptr inbounds [2 x i32], ptr %15, i64 0, i64 1
  store i32 1, ptr %16, align 4, !tbaa !39
  %17 = load ptr, ptr %4, align 8, !tbaa !29
  %18 = getelementptr inbounds nuw %struct.TiffContext, ptr %17, i32 0, i32 20
  %19 = getelementptr inbounds [2 x i32], ptr %18, i64 0, i64 0
  store i32 1, ptr %19, align 4, !tbaa !39
  %20 = load ptr, ptr %3, align 8, !tbaa !4
  %21 = load ptr, ptr %4, align 8, !tbaa !29
  %22 = getelementptr inbounds nuw %struct.TiffContext, ptr %21, i32 0, i32 1
  store ptr %20, ptr %22, align 8, !tbaa !40
  %23 = load ptr, ptr %4, align 8, !tbaa !29
  %24 = getelementptr inbounds nuw %struct.TiffContext, ptr %23, i32 0, i32 49
  call void @ff_lzw_decode_open(ptr noundef %24)
  %25 = load ptr, ptr %4, align 8, !tbaa !29
  %26 = getelementptr inbounds nuw %struct.TiffContext, ptr %25, i32 0, i32 49
  %27 = load ptr, ptr %26, align 8, !tbaa !41
  %28 = icmp ne ptr %27, null
  br i1 %28, label %30, label %29

29:                                               ; preds = %1
  store i32 -12, ptr %2, align 4
  store i32 1, ptr %6, align 4
  br label %94

30:                                               ; preds = %1
  call void @ff_ccitt_unpack_init()
  %31 = call ptr @av_frame_alloc()
  %32 = load ptr, ptr %4, align 8, !tbaa !29
  %33 = getelementptr inbounds nuw %struct.TiffContext, ptr %32, i32 0, i32 5
  store ptr %31, ptr %33, align 8, !tbaa !42
  %34 = call ptr @av_packet_alloc()
  %35 = load ptr, ptr %4, align 8, !tbaa !29
  %36 = getelementptr inbounds nuw %struct.TiffContext, ptr %35, i32 0, i32 4
  store ptr %34, ptr %36, align 8, !tbaa !43
  %37 = load ptr, ptr %4, align 8, !tbaa !29
  %38 = getelementptr inbounds nuw %struct.TiffContext, ptr %37, i32 0, i32 5
  %39 = load ptr, ptr %38, align 8, !tbaa !42
  %40 = icmp ne ptr %39, null
  br i1 %40, label %41, label %46

41:                                               ; preds = %30
  %42 = load ptr, ptr %4, align 8, !tbaa !29
  %43 = getelementptr inbounds nuw %struct.TiffContext, ptr %42, i32 0, i32 4
  %44 = load ptr, ptr %43, align 8, !tbaa !43
  %45 = icmp ne ptr %44, null
  br i1 %45, label %47, label %46

46:                                               ; preds = %41, %30
  store i32 -12, ptr %2, align 4
  store i32 1, ptr %6, align 4
  br label %94

47:                                               ; preds = %41
  %48 = call ptr @avcodec_alloc_context3(ptr noundef @ff_mjpeg_decoder)
  %49 = load ptr, ptr %4, align 8, !tbaa !29
  %50 = getelementptr inbounds nuw %struct.TiffContext, ptr %49, i32 0, i32 3
  store ptr %48, ptr %50, align 8, !tbaa !44
  %51 = load ptr, ptr %4, align 8, !tbaa !29
  %52 = getelementptr inbounds nuw %struct.TiffContext, ptr %51, i32 0, i32 3
  %53 = load ptr, ptr %52, align 8, !tbaa !44
  %54 = icmp ne ptr %53, null
  br i1 %54, label %56, label %55

55:                                               ; preds = %47
  store i32 -12, ptr %2, align 4
  store i32 1, ptr %6, align 4
  br label %94

56:                                               ; preds = %47
  %57 = load ptr, ptr %3, align 8, !tbaa !4
  %58 = getelementptr inbounds nuw %struct.AVCodecContext, ptr %57, i32 0, i32 10
  %59 = load i32, ptr %58, align 8, !tbaa !45
  %60 = load ptr, ptr %4, align 8, !tbaa !29
  %61 = getelementptr inbounds nuw %struct.TiffContext, ptr %60, i32 0, i32 3
  %62 = load ptr, ptr %61, align 8, !tbaa !44
  %63 = getelementptr inbounds nuw %struct.AVCodecContext, ptr %62, i32 0, i32 10
  store i32 %59, ptr %63, align 8, !tbaa !45
  %64 = load ptr, ptr %3, align 8, !tbaa !4
  %65 = getelementptr inbounds nuw %struct.AVCodecContext, ptr %64, i32 0, i32 11
  %66 = load i32, ptr %65, align 4, !tbaa !46
  %67 = load ptr, ptr %4, align 8, !tbaa !29
  %68 = getelementptr inbounds nuw %struct.TiffContext, ptr %67, i32 0, i32 3
  %69 = load ptr, ptr %68, align 8, !tbaa !44
  %70 = getelementptr inbounds nuw %struct.AVCodecContext, ptr %69, i32 0, i32 11
  store i32 %66, ptr %70, align 4, !tbaa !46
  %71 = load ptr, ptr %3, align 8, !tbaa !4
  %72 = getelementptr inbounds nuw %struct.AVCodecContext, ptr %71, i32 0, i32 113
  %73 = load i32, ptr %72, align 4, !tbaa !47
  %74 = load ptr, ptr %4, align 8, !tbaa !29
  %75 = getelementptr inbounds nuw %struct.TiffContext, ptr %74, i32 0, i32 3
  %76 = load ptr, ptr %75, align 8, !tbaa !44
  %77 = getelementptr inbounds nuw %struct.AVCodecContext, ptr %76, i32 0, i32 113
  store i32 %73, ptr %77, align 4, !tbaa !47
  %78 = load ptr, ptr %3, align 8, !tbaa !4
  %79 = getelementptr inbounds nuw %struct.AVCodecContext, ptr %78, i32 0, i32 141
  %80 = load i64, ptr %79, align 8, !tbaa !48
  %81 = load ptr, ptr %4, align 8, !tbaa !29
  %82 = getelementptr inbounds nuw %struct.TiffContext, ptr %81, i32 0, i32 3
  %83 = load ptr, ptr %82, align 8, !tbaa !44
  %84 = getelementptr inbounds nuw %struct.AVCodecContext, ptr %83, i32 0, i32 141
  store i64 %80, ptr %84, align 8, !tbaa !48
  %85 = load ptr, ptr %4, align 8, !tbaa !29
  %86 = getelementptr inbounds nuw %struct.TiffContext, ptr %85, i32 0, i32 3
  %87 = load ptr, ptr %86, align 8, !tbaa !44
  %88 = call i32 @avcodec_open2(ptr noundef %87, ptr noundef null, ptr noundef null)
  store i32 %88, ptr %5, align 4, !tbaa !39
  %89 = load i32, ptr %5, align 4, !tbaa !39
  %90 = icmp slt i32 %89, 0
  br i1 %90, label %91, label %93

91:                                               ; preds = %56
  %92 = load i32, ptr %5, align 4, !tbaa !39
  store i32 %92, ptr %2, align 4
  store i32 1, ptr %6, align 4
  br label %94

93:                                               ; preds = %56
  store i32 0, ptr %2, align 4
  store i32 1, ptr %6, align 4
  br label %94

94:                                               ; preds = %93, %91, %55, %46, %29
  call void @llvm.lifetime.end.p0(i64 4, ptr %5) #13
  call void @llvm.lifetime.end.p0(i64 8, ptr %4) #13
  %95 = load i32, ptr %2, align 4
  ret i32 %95
}