; Function Attrs: cold nounwind optsize uwtable
define internal range(i32 -2147483648, 1) i32 @tiff_init(ptr noundef %0) #0 {
  %2 = getelementptr inbounds nuw i8, ptr %0, i64 32
  %3 = load ptr, ptr %2, align 8, !tbaa !4
  %4 = getelementptr inbounds nuw i8, ptr %3, i64 80
  store i32 0, ptr %4, align 8, !tbaa !27
  %5 = getelementptr inbounds nuw i8, ptr %3, i64 84
  store i32 0, ptr %5, align 4, !tbaa !35
  %6 = getelementptr inbounds nuw i8, ptr %3, i64 1140
  %7 = getelementptr inbounds nuw i8, ptr %3, i64 1144
  store i32 1, ptr %7, align 4, !tbaa !36
  store i32 1, ptr %6, align 4, !tbaa !36
  %8 = getelementptr inbounds nuw i8, ptr %3, i64 8
  store ptr %0, ptr %8, align 8, !tbaa !37
  %9 = getelementptr inbounds nuw i8, ptr %3, i64 132504
  tail call void @ff_lzw_decode_open(ptr noundef nonnull %9) #16
  %10 = load ptr, ptr %9, align 8, !tbaa !38
  %.not = icmp eq ptr %10, null
  br i1 %.not, label %34, label %11

11:                                               ; preds = %1
  tail call void @ff_ccitt_unpack_init() #16
  %12 = tail call ptr @av_frame_alloc() #16
  %13 = getelementptr inbounds nuw i8, ptr %3, i64 56
  store ptr %12, ptr %13, align 8, !tbaa !39
  %14 = tail call ptr @av_packet_alloc() #16
  %15 = getelementptr inbounds nuw i8, ptr %3, i64 48
  store ptr %14, ptr %15, align 8, !tbaa !40
  %16 = load ptr, ptr %13, align 8, !tbaa !39
  %.not28 = icmp eq ptr %16, null
  %.not29 = icmp eq ptr %14, null
  %or.cond = select i1 %.not28, i1 true, i1 %.not29
  br i1 %or.cond, label %34, label %17

17:                                               ; preds = %11
  %18 = tail call ptr @avcodec_alloc_context3(ptr noundef nonnull @ff_mjpeg_decoder) #16
  %19 = getelementptr inbounds nuw i8, ptr %3, i64 40
  store ptr %18, ptr %19, align 8, !tbaa !41
  %.not30 = icmp eq ptr %18, null
  br i1 %.not30, label %34, label %20

20:                                               ; preds = %17
  %21 = getelementptr inbounds nuw i8, ptr %0, i64 64
  %22 = load i32, ptr %21, align 8, !tbaa !42
  %23 = getelementptr inbounds nuw i8, ptr %18, i64 64
  store i32 %22, ptr %23, align 8, !tbaa !42
  %24 = getelementptr inbounds nuw i8, ptr %0, i64 68
  %25 = load i32, ptr %24, align 4, !tbaa !43
  %26 = getelementptr inbounds nuw i8, ptr %18, i64 68
  store i32 %25, ptr %26, align 4, !tbaa !43
  %27 = getelementptr inbounds nuw i8, ptr %0, i64 644
  %28 = load i32, ptr %27, align 4, !tbaa !44
  %29 = getelementptr inbounds nuw i8, ptr %18, i64 644
  store i32 %28, ptr %29, align 4, !tbaa !44
  %30 = getelementptr inbounds nuw i8, ptr %0, i64 792
  %31 = load i64, ptr %30, align 8, !tbaa !45
  %32 = getelementptr inbounds nuw i8, ptr %18, i64 792
  store i64 %31, ptr %32, align 8, !tbaa !45
  %33 = tail call i32 @avcodec_open2(ptr noundef nonnull %18, ptr noundef null, ptr noundef null) #16
  %. = tail call i32 @llvm.smin.i32(i32 %33, i32 0)
  br label %34

34:                                               ; preds = %20, %17, %11, %1
  %.0 = phi i32 [ -12, %1 ], [ -12, %11 ], [ -12, %17 ], [ %., %20 ]
  ret i32 %.0
}